Certificate:
    Data:
        Version: 3 (0x2)
        Serial Number: 16777216 (0x1000000)
    Signature Algorithm: sha256WithRSAEncryption
        Issuer: C=CZ, CN=GFR EET test CA 1, O=Gener\xC3\xA1ln\xC3\xAD finan\xC4\x8Dn\xC3\xAD \xC5\x99editelstv\xC3\xAD
        Validity
            Not Before: May  2 11:52:28 2016 GMT
            Not After : Apr 30 11:52:28 2026 GMT
        Subject: C=CZ, CN=GFR EET test CA 1, O=Gener\xC3\xA1ln\xC3\xAD finan\xC4\x8Dn\xC3\xAD \xC5\x99editelstv\xC3\xAD
        Subject Public Key Info:
            Public Key Algorithm: rsaEncryption
                Public-Key: (2048 bit)
                Modulus:
                    00:cd:8d:c9:1c:79:aa:2c:14:88:cb:b1:2f:24:36:
                    27:dd:07:d7:95:da:9f:fb:2e:37:46:6c:c1:28:af:
                    41:13:a2:97:1a:f6:20:9b:25:f8:f0:27:87:37:4d:
                    18:c5:c8:cb:e5:ee:9b:54:45:c0:79:76:02:b1:b0:
                    e5:18:d5:c2:f1:83:59:32:10:ae:34:5d:39:cb:cc:
                    81:ec:7c:93:a8:85:58:93:18:ee:b3:12:b7:95:3a:
                    7e:44:20:88:5d:15:e1:3f:42:bc:2c:e7:3a:03:93:
                    db:51:b3:d4:66:14:d1:81:e4:e6:77:82:bc:e4:db:
                    a5:6f:b0:36:77:4e:f3:8b:f7:c7:3c:a2:87:4e:bb:
                    a1:2e:30:4d:63:ad:c2:4d:a0:5b:a1:9f:86:3a:51:
                    a3:bc:7b:bc:f5:ce:a9:f3:10:82:89:68:d2:36:8e:
                    9d:6a:0b:22:5b:50:a1:17:86:21:30:8d:81:fe:1e:
                    80:98:e2:8f:ad:bb:93:16:2b:c8:58:4e:61:b9:4e:
                    ca:ac:95:84:ed:ef:4b:b2:04:6f:e8:89:da:85:9e:
                    7e:68:44:36:04:4b:e0:f7:b4:44:b2:65:a4:87:e8:
                    49:87:13:68:81:ed:f8:5c:47:41:a3:0b:86:6b:21:
                    c0:98:21:e2:1c:e3:8c:0c:27:1e:3e:d3:8c:b4:a5:
                    09:b9
                Exponent: 65537 (0x10001)
        X509v3 extensions:
            X509v3 Basic Constraints: critical
                CA:TRUE
            X509v3 Key Usage: critical
                Certificate Sign, CRL Sign
            X509v3 Subject Alternative Name: 
                email:epodpora@fs.mfcr.cz
            X509v3 Certificate Policies: 
                Policy: 2.16.840.1.101.3.2.1.48.1
                  User Notice:
                    Explicit Text: Tato CA je pouze TESTOVACI

            X509v3 Subject Key Identifier: 
                7A:5A:FC:0D:CB:EC:36:A6:0D:DA:69:19:66:8C:9B:EF:82:C3:A9:34
    Signature Algorithm: sha256WithRSAEncryption
         bc:7f:58:bb:0f:e5:e9:70:05:c4:9e:86:37:52:75:24:17:14:
         38:6b:7d:e1:f0:79:71:14:02:86:52:c0:4e:1d:6f:d9:81:53:
         fc:07:8d:41:84:24:7e:ec:9c:db:ad:f8:16:35:85:94:6c:4e:
         13:05:84:bf:25:6a:cd:9b:84:30:50:ec:b6:50:1f:27:02:ef:
         00:6f:86:c3:77:9d:9e:10:d9:11:88:2b:b2:d2:49:13:eb:7e:
         43:62:d7:16:41:e6:e6:d9:a8:ef:12:bd:1f:4e:8b:c1:8d:47:
         3d:2e:fc:0e:7a:f9:d7:7d:9f:de:a6:d8:ec:87:73:d3:8c:c1:
         be:c3:c4:07:41:1c:54:6a:97:59:b4:e0:0d:fd:dc:ba:c7:89:
         2e:a8:10:00:16:01:b0:c3:d7:15:1e:91:fd:4d:86:b8:ce:e9:
         0c:b3:27:a9:b8:6c:04:22:d0:40:8e:2b:81:0e:fe:8b:73:5d:
         b6:41:8b:1a:09:01:d3:30:20:01:a5:51:75:03:2d:08:b9:1e:
         62:ec:4f:b2:3d:af:77:f1:95:a8:79:c1:6b:96:2c:58:5b:d4:
         7e:b0:7f:d2:7d:af:05:db:6c:78:9a:3d:1c:ef:25:59:33:a9:
         3b:19:db:c9:75:2f:40:57:00:1c:55:c1:9f:8a:ac:cf:9d:2d:
         4b:9d:96:0c
-----BEGIN CERTIFICATE-----
MIID1zCCAr+gAwIBAgIEAQAAADANBgkqhkiG9w0BAQsFADBYMQswCQYDVQQGEwJD
WjEaMBgGA1UEAwwRR0ZSIEVFVCB0ZXN0IENBIDExLTArBgNVBAoMJEdlbmVyw6Fs
bsOtIGZpbmFuxI1uw60gxZllZGl0ZWxzdHbDrTAeFw0xNjA1MDIxMTUyMjhaFw0y
NjA0MzAxMTUyMjhaMFgxCzAJBgNVBAYTAkNaMRowGAYDVQQDDBFHRlIgRUVUIHRl
c3QgQ0EgMTEtMCsGA1UECgwkR2VuZXLDoWxuw60gZmluYW7EjW7DrSDFmWVkaXRl
bHN0dsOtMIIBIjANBgkqhkiG9w0BAQEFAAOCAQ8AMIIBCgKCAQEAzY3JHHmqLBSI
y7EvJDYn3QfXldqf+y43RmzBKK9BE6KXGvYgmyX48CeHN00YxcjL5e6bVEXAeXYC
sbDlGNXC8YNZMhCuNF05y8yB7HyTqIVYkxjusxK3lTp+RCCIXRXhP0K8LOc6A5Pb
UbPUZhTRgeTmd4K85Nulb7A2d07zi/fHPKKHTruhLjBNY63CTaBboZ+GOlGjvHu8
9c6p8xCCiWjSNo6dagsiW1ChF4YhMI2B/h6AmOKPrbuTFivIWE5huU7KrJWE7e9L
sgRv6InahZ5+aEQ2BEvg97REsmWkh+hJhxNoge34XEdBowuGayHAmCHiHOOMDCce
PtOMtKUJuQIDAQABo4GoMIGlMA8GA1UdEwEB/wQFMAMBAf8wDgYDVR0PAQH/BAQD
AgEGMB4GA1UdEQQXMBWBE2Vwb2Rwb3JhQGZzLm1mY3IuY3owQwYDVR0gBDwwOjA4
BgpghkgBZQMCATABMCowKAYIKwYBBQUHAgIwHBoaVGF0byBDQSBqZSBwb3V6ZSBU
RVNUT1ZBQ0kwHQYDVR0OBBYEFHpa/A3L7DamDdppGWaMm++Cw6k0MA0GCSqGSIb3
DQEBCwUAA4IBAQC8f1i7D+XpcAXEnoY3UnUkFxQ4a33h8HlxFAKGUsBOHW/ZgVP8
B41BhCR+7JzbrfgWNYWUbE4TBYS/JWrNm4QwUOy2UB8nAu8Ab4bDd52eENkRiCuy
0kkT635DYtcWQebm2ajvEr0fTovBjUc9LvwOevnXfZ/eptjsh3PTjMG+w8QHQRxU
apdZtOAN/dy6x4kuqBAAFgGww9cVHpH9TYa4zukMsyepuGwEItBAjiuBDv6Lc122
QYsaCQHTMCABpVF1Ay0IuR5i7E+yPa938ZWoecFrlixYW9R+sH/Sfa8F22x4mj0c
7yVZM6k7GdvJdS9AVwAcVcGfiqzPnS1LnZYM
-----END CERTIFICATE-----
